target datalayout = "e-m:e-p270:32:32-p271:32:32-p272:64:64-i64:64-i128:128-f80:128-n8:16:32:64-S128"
target triple = "x86_64-pc-linux-gnu"

%"class.OpenSubdiv::v3_6_0::Vtr::internal::FVarLevel" = type { ptr, %"class.OpenSubdiv::v3_6_0::Sdc::Options", i8, i8, i8, i32, %"class.std::vector", %"class.std::vector.0", %"class.std::vector.5", %"class.std::vector", %"class.std::vector.5", %"class.std::vector", %"class.std::vector.10", %"class.std::vector.15" }
%"class.OpenSubdiv::v3_6_0::Sdc::Options" = type { i8, i8, i8, i8 }
%"class.std::vector.0" = type { %"struct.std::_Vector_base.1" }
%"struct.std::_Vector_base.1" = type { %"struct.std::_Vector_base<OpenSubdiv::v3_6_0::Vtr::internal::FVarLevel::ETag, std::allocator<OpenSubdiv::v3_6_0::Vtr::internal::FVarLevel::ETag>>::_Vector_impl" }
%"struct.std::_Vector_base<OpenSubdiv::v3_6_0::Vtr::internal::FVarLevel::ETag, std::allocator<OpenSubdiv::v3_6_0::Vtr::internal::FVarLevel::ETag>>::_Vector_impl" = type { %"struct.std::_Vector_base<OpenSubdiv::v3_6_0::Vtr::internal::FVarLevel::ETag, std::allocator<OpenSubdiv::v3_6_0::Vtr::internal::FVarLevel::ETag>>::_Vector_impl_data" }
%"struct.std::_Vector_base<OpenSubdiv::v3_6_0::Vtr::internal::FVarLevel::ETag, std::allocator<OpenSubdiv::v3_6_0::Vtr::internal::FVarLevel::ETag>>::_Vector_impl_data" = type { ptr, ptr, ptr }
%"class.std::vector.5" = type { %"struct.std::_Vector_base.6" }
%"struct.std::_Vector_base.6" = type { %"struct.std::_Vector_base<unsigned short, std::allocator<unsigned short>>::_Vector_impl" }
%"struct.std::_Vector_base<unsigned short, std::allocator<unsigned short>>::_Vector_impl" = type { %"struct.std::_Vector_base<unsigned short, std::allocator<unsigned short>>::_Vector_impl_data" }
%"struct.std::_Vector_base<unsigned short, std::allocator<unsigned short>>::_Vector_impl_data" = type { ptr, ptr, ptr }
%"class.std::vector" = type { %"struct.std::_Vector_base" }
%"struct.std::_Vector_base" = type { %"struct.std::_Vector_base<int, std::allocator<int>>::_Vector_impl" }
%"struct.std::_Vector_base<int, std::allocator<int>>::_Vector_impl" = type { %"struct.std::_Vector_base<int, std::allocator<int>>::_Vector_impl_data" }
%"struct.std::_Vector_base<int, std::allocator<int>>::_Vector_impl_data" = type { ptr, ptr, ptr }
%"class.std::vector.10" = type { %"struct.std::_Vector_base.11" }
%"struct.std::_Vector_base.11" = type { %"struct.std::_Vector_base<OpenSubdiv::v3_6_0::Vtr::internal::FVarLevel::ValueTag, std::allocator<OpenSubdiv::v3_6_0::Vtr::internal::FVarLevel::ValueTag>>::_Vector_impl" }
%"struct.std::_Vector_base<OpenSubdiv::v3_6_0::Vtr::internal::FVarLevel::ValueTag, std::allocator<OpenSubdiv::v3_6_0::Vtr::internal::FVarLevel::ValueTag>>::_Vector_impl" = type { %"struct.std::_Vector_base<OpenSubdiv::v3_6_0::Vtr::internal::FVarLevel::ValueTag, std::allocator<OpenSubdiv::v3_6_0::Vtr::internal::FVarLevel::ValueTag>>::_Vector_impl_data" }
%"struct.std::_Vector_base<OpenSubdiv::v3_6_0::Vtr::internal::FVarLevel::ValueTag, std::allocator<OpenSubdiv::v3_6_0::Vtr::internal::FVarLevel::ValueTag>>::_Vector_impl_data" = type { ptr, ptr, ptr }
%"class.std::vector.15" = type { %"struct.std::_Vector_base.16" }
%"struct.std::_Vector_base.16" = type { %"struct.std::_Vector_base<OpenSubdiv::v3_6_0::Vtr::internal::FVarLevel::CreaseEndPair, std::allocator<OpenSubdiv::v3_6_0::Vtr::internal::FVarLevel::CreaseEndPair>>::_Vector_impl" }
%"struct.std::_Vector_base<OpenSubdiv::v3_6_0::Vtr::internal::FVarLevel::CreaseEndPair, std::allocator<OpenSubdiv::v3_6_0::Vtr::internal::FVarLevel::CreaseEndPair>>::_Vector_impl" = type { %"struct.std::_Vector_base<OpenSubdiv::v3_6_0::Vtr::internal::FVarLevel::CreaseEndPair, std::allocator<OpenSubdiv::v3_6_0::Vtr::internal::FVarLevel::CreaseEndPair>>::_Vector_impl_data" }
%"struct.std::_Vector_base<OpenSubdiv::v3_6_0::Vtr::internal::FVarLevel::CreaseEndPair, std::allocator<OpenSubdiv::v3_6_0::Vtr::internal::FVarLevel::CreaseEndPair>>::_Vector_impl_data" = type { ptr, ptr, ptr }
%"class.OpenSubdiv::v3_6_0::Vtr::internal::Level" = type { i32, i32, i32, i32, i32, i32, %"class.std::vector", %"class.std::vector", %"class.std::vector", %"class.std::vector.20", %"class.std::vector", %"class.std::vector", %"class.std::vector", %"class.std::vector.5", %"class.std::vector.25", %"class.std::vector.30", %"class.std::vector", %"class.std::vector", %"class.std::vector.5", %"class.std::vector", %"class.std::vector", %"class.std::vector.5", %"class.std::vector.25", %"class.std::vector.35", %"class.std::vector.40" }
%"class.std::vector.20" = type { %"struct.std::_Vector_base.21" }
%"struct.std::_Vector_base.21" = type { %"struct.std::_Vector_base<OpenSubdiv::v3_6_0::Vtr::internal::Level::FTag, std::allocator<OpenSubdiv::v3_6_0::Vtr::internal::Level::FTag>>::_Vector_impl" }
%"struct.std::_Vector_base<OpenSubdiv::v3_6_0::Vtr::internal::Level::FTag, std::allocator<OpenSubdiv::v3_6_0::Vtr::internal::Level::FTag>>::_Vector_impl" = type { %"struct.std::_Vector_base<OpenSubdiv::v3_6_0::Vtr::internal::Level::FTag, std::allocator<OpenSubdiv::v3_6_0::Vtr::internal::Level::FTag>>::_Vector_impl_data" }
%"struct.std::_Vector_base<OpenSubdiv::v3_6_0::Vtr::internal::Level::FTag, std::allocator<OpenSubdiv::v3_6_0::Vtr::internal::Level::FTag>>::_Vector_impl_data" = type { ptr, ptr, ptr }
%"class.std::vector.30" = type { %"struct.std::_Vector_base.31" }
%"struct.std::_Vector_base.31" = type { %"struct.std::_Vector_base<OpenSubdiv::v3_6_0::Vtr::internal::Level::ETag, std::allocator<OpenSubdiv::v3_6_0::Vtr::internal::Level::ETag>>::_Vector_impl" }
%"struct.std::_Vector_base<OpenSubdiv::v3_6_0::Vtr::internal::Level::ETag, std::allocator<OpenSubdiv::v3_6_0::Vtr::internal::Level::ETag>>::_Vector_impl" = type { %"struct.std::_Vector_base<OpenSubdiv::v3_6_0::Vtr::internal::Level::ETag, std::allocator<OpenSubdiv::v3_6_0::Vtr::internal::Level::ETag>>::_Vector_impl_data" }
%"struct.std::_Vector_base<OpenSubdiv::v3_6_0::Vtr::internal::Level::ETag, std::allocator<OpenSubdiv::v3_6_0::Vtr::internal::Level::ETag>>::_Vector_impl_data" = type { ptr, ptr, ptr }
%"class.std::vector.25" = type { %"struct.std::_Vector_base.26" }
%"struct.std::_Vector_base.26" = type { %"struct.std::_Vector_base<float, std::allocator<float>>::_Vector_impl" }
%"struct.std::_Vector_base<float, std::allocator<float>>::_Vector_impl" = type { %"struct.std::_Vector_base<float, std::allocator<float>>::_Vector_impl_data" }
%"struct.std::_Vector_base<float, std::allocator<float>>::_Vector_impl_data" = type { ptr, ptr, ptr }
%"class.std::vector.35" = type { %"struct.std::_Vector_base.36" }
%"struct.std::_Vector_base.36" = type { %"struct.std::_Vector_base<OpenSubdiv::v3_6_0::Vtr::internal::Level::VTag, std::allocator<OpenSubdiv::v3_6_0::Vtr::internal::Level::VTag>>::_Vector_impl" }
%"struct.std::_Vector_base<OpenSubdiv::v3_6_0::Vtr::internal::Level::VTag, std::allocator<OpenSubdiv::v3_6_0::Vtr::internal::Level::VTag>>::_Vector_impl" = type { %"struct.std::_Vector_base<OpenSubdiv::v3_6_0::Vtr::internal::Level::VTag, std::allocator<OpenSubdiv::v3_6_0::Vtr::internal::Level::VTag>>::_Vector_impl_data" }
%"struct.std::_Vector_base<OpenSubdiv::v3_6_0::Vtr::internal::Level::VTag, std::allocator<OpenSubdiv::v3_6_0::Vtr::internal::Level::VTag>>::_Vector_impl_data" = type { ptr, ptr, ptr }
%"class.std::vector.40" = type { %"struct.std::_Vector_base.41" }
%"struct.std::_Vector_base.41" = type { %"struct.std::_Vector_base<OpenSubdiv::v3_6_0::Vtr::internal::FVarLevel *, std::allocator<OpenSubdiv::v3_6_0::Vtr::internal::FVarLevel *>>::_Vector_impl" }
%"struct.std::_Vector_base<OpenSubdiv::v3_6_0::Vtr::internal::FVarLevel *, std::allocator<OpenSubdiv::v3_6_0::Vtr::internal::FVarLevel *>>::_Vector_impl" = type { %"struct.std::_Vector_base<OpenSubdiv::v3_6_0::Vtr::internal::FVarLevel *, std::allocator<OpenSubdiv::v3_6_0::Vtr::internal::FVarLevel *>>::_Vector_impl_data" }
%"struct.std::_Vector_base<OpenSubdiv::v3_6_0::Vtr::internal::FVarLevel *, std::allocator<OpenSubdiv::v3_6_0::Vtr::internal::FVarLevel *>>::_Vector_impl_data" = type { ptr, ptr, ptr }
%"class.OpenSubdiv::v3_6_0::Vtr::ConstArray" = type <{ ptr, i32, [4 x i8] }>

; Function Attrs: mustprogress nounwind uwtable
define linkonce_odr void @_ZN10OpenSubdiv6v3_6_03Vtr10ConstArrayIiEC2EPKii(ptr noundef nonnull align 8 dereferenceable(12) %0, ptr noundef %1, i32 noundef %2) unnamed_addr #1 comdat align 2 {
  %4 = alloca ptr, align 8
  %5 = alloca ptr, align 8
  %6 = alloca i32, align 4
  store ptr %0, ptr %4, align 8
  store ptr %1, ptr %5, align 8
  store i32 %2, ptr %6, align 4
  %7 = load ptr, ptr %4, align 8
  %8 = getelementptr inbounds nuw %"class.OpenSubdiv::v3_6_0::Vtr::ConstArray", ptr %7, i32 0, i32 0
  %9 = load ptr, ptr %5, align 8
  store ptr %9, ptr %8, align 8
  %10 = getelementptr inbounds nuw %"class.OpenSubdiv::v3_6_0::Vtr::ConstArray", ptr %7, i32 0, i32 1
  %11 = load i32, ptr %6, align 4
  store i32 %11, ptr %10, align 8
  ret void
}

; Function Attrs: mustprogress nounwind uwtable
define linkonce_odr noundef i64 @_ZNKSt6vectorIiSaIiEE4sizeEv(ptr noundef nonnull align 8 dereferenceable(24) %0) #1 comdat align 2 {
  %2 = alloca ptr, align 8
  store ptr %0, ptr %2, align 8
  %3 = load ptr, ptr %2, align 8
  %4 = getelementptr inbounds nuw %"struct.std::_Vector_base", ptr %3, i32 0, i32 0
  %5 = getelementptr inbounds nuw %"struct.std::_Vector_base<int, std::allocator<int>>::_Vector_impl_data", ptr %4, i32 0, i32 1
  %6 = load ptr, ptr %5, align 8
  %7 = getelementptr inbounds nuw %"struct.std::_Vector_base", ptr %3, i32 0, i32 0
  %8 = getelementptr inbounds nuw %"struct.std::_Vector_base<int, std::allocator<int>>::_Vector_impl_data", ptr %7, i32 0, i32 0
  %9 = load ptr, ptr %8, align 8
  %10 = ptrtoint ptr %6 to i64
  %11 = ptrtoint ptr %9 to i64
  %12 = sub i64 %10, %11
  %13 = sdiv exact i64 %12, 4
  ret i64 %13
}

; Function Attrs: mustprogress nounwind uwtable
define linkonce_odr noundef nonnull align 4 dereferenceable(4) ptr @_ZNKSt6vectorIiSaIiEEixEm(ptr noundef nonnull align 8 dereferenceable(24) %0, i64 noundef %1) #1 comdat align 2 {
  %3 = alloca ptr, align 8
  %4 = alloca i64, align 8
  store ptr %0, ptr %3, align 8
  store i64 %1, ptr %4, align 8
  %5 = load ptr, ptr %3, align 8
  %6 = getelementptr inbounds nuw %"struct.std::_Vector_base", ptr %5, i32 0, i32 0
  %7 = getelementptr inbounds nuw %"struct.std::_Vector_base<int, std::allocator<int>>::_Vector_impl_data", ptr %6, i32 0, i32 0
  %8 = load ptr, ptr %7, align 8
  %9 = load i64, ptr %4, align 8
  %10 = getelementptr inbounds i32, ptr %8, i64 %9
  ret ptr %10
}

; Function Attrs: mustprogress nounwind uwtable
define linkonce_odr noundef i32 @_ZNK10OpenSubdiv6v3_6_03Vtr10ConstArrayIiE4sizeEv(ptr noundef nonnull align 8 dereferenceable(12) %0) #1 comdat align 2 {
  %2 = alloca ptr, align 8
  store ptr %0, ptr %2, align 8
  %3 = load ptr, ptr %2, align 8
  %4 = getelementptr inbounds nuw %"class.OpenSubdiv::v3_6_0::Vtr::ConstArray", ptr %3, i32 0, i32 1
  %5 = load i32, ptr %4, align 8
  ret i32 %5
}

; Function Attrs: mustprogress nounwind uwtable
define linkonce_odr noundef nonnull align 4 dereferenceable(4) ptr @_ZNK10OpenSubdiv6v3_6_03Vtr10ConstArrayIiEixEi(ptr noundef nonnull align 8 dereferenceable(12) %0, i32 noundef %1) #1 comdat align 2 {
  %3 = alloca ptr, align 8
  %4 = alloca i32, align 4
  store ptr %0, ptr %3, align 8
  store i32 %1, ptr %4, align 4
  %5 = load ptr, ptr %3, align 8
  %6 = getelementptr inbounds nuw %"class.OpenSubdiv::v3_6_0::Vtr::ConstArray", ptr %5, i32 0, i32 0
  %7 = load ptr, ptr %6, align 8
  %8 = load i32, ptr %4, align 4
  %9 = sext i32 %8 to i64
  %10 = getelementptr inbounds i32, ptr %7, i64 %9
  ret ptr %10
}

; Function Attrs: mustprogress nounwind uwtable
define linkonce_odr noundef nonnull align 4 dereferenceable(4) ptr @_ZNSt6vectorIiSaIiEEixEm(ptr noundef nonnull align 8 dereferenceable(24) %0, i64 noundef %1) #1 comdat align 2 {
  %3 = alloca ptr, align 8
  %4 = alloca i64, align 8
  store ptr %0, ptr %3, align 8
  store i64 %1, ptr %4, align 8
  %5 = load ptr, ptr %3, align 8
  %6 = getelementptr inbounds nuw %"struct.std::_Vector_base", ptr %5, i32 0, i32 0
  %7 = getelementptr inbounds nuw %"struct.std::_Vector_base<int, std::allocator<int>>::_Vector_impl_data", ptr %6, i32 0, i32 0
  %8 = load ptr, ptr %7, align 8
  %9 = load i64, ptr %4, align 8
  %10 = getelementptr inbounds i32, ptr %8, i64 %9
  ret ptr %10
}

; Function Attrs: mustprogress uwtable
define linkonce_odr { ptr, i32 } @_ZNK10OpenSubdiv6v3_6_03Vtr8internal5Level15getFaceVerticesEv(ptr noundef nonnull align 8 dereferenceable(480) %0) #0 comdat align 2 {
  %2 = alloca %"class.OpenSubdiv::v3_6_0::Vtr::ConstArray", align 8
  %3 = alloca ptr, align 8
  store ptr %0, ptr %3, align 8
  %4 = load ptr, ptr %3, align 8
  %5 = getelementptr inbounds nuw %"class.OpenSubdiv::v3_6_0::Vtr::internal::Level", ptr %4, i32 0, i32 7
  %6 = call noundef nonnull align 4 dereferenceable(4) ptr @_ZNKSt6vectorIiSaIiEEixEm(ptr noundef nonnull align 8 dereferenceable(24) %5, i64 noundef 0) #10
  %7 = getelementptr inbounds nuw %"class.OpenSubdiv::v3_6_0::Vtr::internal::Level", ptr %4, i32 0, i32 7
  %8 = call noundef i64 @_ZNKSt6vectorIiSaIiEE4sizeEv(ptr noundef nonnull align 8 dereferenceable(24) %7) #10
  %9 = trunc i64 %8 to i32
  call void @_ZN10OpenSubdiv6v3_6_03Vtr10ConstArrayIiEC2EPKii(ptr noundef nonnull align 8 dereferenceable(12) %2, ptr noundef %6, i32 noundef %9)
  %10 = load { ptr, i32 }, ptr %2, align 8
  ret { ptr, i32 } %10
}

; Function Attrs: mustprogress uwtable
define void @_ZN10OpenSubdiv6v3_6_03Vtr8internal9FVarLevel36initializeFaceValuesFromFaceVerticesEv(ptr noundef nonnull align 8 dereferenceable(216) %0) #0 align 2 {
  %2 = alloca ptr, align 8
  %3 = alloca %"class.OpenSubdiv::v3_6_0::Vtr::ConstArray", align 8
  %4 = alloca { ptr, i32 }, align 8
  %5 = alloca ptr, align 8
  store ptr %0, ptr %2, align 8
  %6 = load ptr, ptr %2, align 8
  %7 = getelementptr inbounds nuw %"class.OpenSubdiv::v3_6_0::Vtr::internal::FVarLevel", ptr %6, i32 0, i32 0
  %8 = load ptr, ptr %7, align 8
  %9 = call { ptr, i32 } @_ZNK10OpenSubdiv6v3_6_03Vtr8internal5Level15getFaceVerticesEv(ptr noundef nonnull align 8 dereferenceable(480) %8)
  store { ptr, i32 } %9, ptr %4, align 8
  call void @llvm.memcpy.p0.p0.i64(ptr align 8 %3, ptr align 8 %4, i64 12, i1 false)
  %10 = getelementptr inbounds nuw %"class.OpenSubdiv::v3_6_0::Vtr::internal::FVarLevel", ptr %6, i32 0, i32 6
  %11 = call noundef nonnull align 4 dereferenceable(4) ptr @_ZNSt6vectorIiSaIiEEixEm(ptr noundef nonnull align 8 dereferenceable(24) %10, i64 noundef 0) #10
  store ptr %11, ptr %5, align 8
  %12 = load ptr, ptr %5, align 8
  %13 = call noundef nonnull align 4 dereferenceable(4) ptr @_ZNK10OpenSubdiv6v3_6_03Vtr10ConstArrayIiEixEi(ptr noundef nonnull align 8 dereferenceable(12) %3, i32 noundef 0)
  %14 = call noundef i32 @_ZNK10OpenSubdiv6v3_6_03Vtr10ConstArrayIiE4sizeEv(ptr noundef nonnull align 8 dereferenceable(12) %3)
  %15 = sext i32 %14 to i64
  %16 = mul i64 %15, 4
  call void @llvm.memcpy.p0.p0.i64(ptr align 4 %12, ptr align 4 %13, i64 %16, i1 false)
  ret void
}