; Function Attrs: mustprogress nofree norecurse nosync nounwind willreturn memory(readwrite, inaccessiblemem: none) uwtable
define void @_ZN10OpenSubdiv6v3_6_03Vtr8internal9FVarLevel36initializeFaceValuesFromFaceVerticesEv(ptr nocapture noundef nonnull readonly align 8 dereferenceable(216) %0) local_unnamed_addr #12 align 2 {
  %2 = load ptr, ptr %0, align 8
  %3 = getelementptr inbounds nuw i8, ptr %2, i64 48
  %4 = load ptr, ptr %3, align 8
  %5 = getelementptr inbounds i8, ptr %2, i64 56
  %6 = load ptr, ptr %5, align 8
  %7 = ptrtoint ptr %6 to i64
  %8 = ptrtoint ptr %4 to i64
  %9 = sub i64 %7, %8
  %10 = getelementptr inbounds nuw i8, ptr %0, i64 24
  %11 = load ptr, ptr %10, align 8
  %sext = shl i64 %9, 30
  %12 = ashr exact i64 %sext, 30
  %13 = and i64 %12, -4
  tail call void @llvm.memcpy.p0.p0.i64(ptr nonnull align 4 %11, ptr nonnull align 4 %4, i64 %13, i1 false)
  ret void
}